Certificate:
    Data:
        Version: 3 (0x2)
        Serial Number:
            bf:4b:98:ac:87:06:6c:5b
    Signature Algorithm: sha256WithRSAEncryption
        Issuer: C=US, ST=OH, O=Apache, OU=Knox, CN=ldap/emailAddress=smore@hortonworks.com
        Validity
            Not Before: Nov 16 01:39:57 2016 GMT
            Not After : Nov 16 01:39:57 2019 GMT
        Subject: C=US, ST=OH, O=Apache, OU=Knox, CN=ldap/emailAddress=smore@hortonworks.com
        Subject Public Key Info:
            Public Key Algorithm: rsaEncryption
                Public-Key: (2048 bit)
                Modulus:
                    00:c2:03:a9:10:f1:42:0d:64:97:58:ec:84:30:7f:
                    74:8f:32:41:b5:f3:52:9b:9c:ac:dc:f9:7e:46:83:
                    a2:02:2d:8a:a6:b3:ac:0d:49:ac:8e:85:0b:c4:e4:
                    68:52:b3:98:11:61:f1:ea:51:f7:06:ef:9b:9e:aa:
                    99:93:85:03:3e:f2:d1:4b:89:f6:ff:e5:ec:5e:c1:
                    a9:58:6e:ad:12:d9:36:53:dc:9c:8d:b9:5a:2c:b1:
                    61:c2:9f:f5:04:b0:7f:0d:15:33:56:8e:06:16:d8:
                    ac:af:e3:74:19:13:ce:14:e6:cf:28:6d:6d:c2:0e:
                    1e:cd:0c:d5:6a:ed:58:16:62:60:5b:d2:a4:d4:ec:
                    ff:c1:74:9d:69:73:78:eb:7a:fd:2a:0f:4f:71:b3:
                    13:60:ec:33:b0:f5:e1:ea:f6:f9:93:1e:7a:ea:a7:
                    16:83:13:f6:63:c8:76:4c:4a:96:94:ae:88:a6:3a:
                    b0:70:96:62:ee:26:39:a6:b9:c5:57:e6:b9:7e:4a:
                    99:d2:63:71:c8:a2:c8:79:15:2d:7f:10:87:93:47:
                    6d:67:c1:07:5c:61:47:e8:ce:db:83:c6:c7:fa:de:
                    7b:b1:80:6a:69:aa:92:a7:2e:3f:b5:18:16:68:f9:
                    1a:2e:57:81:99:47:77:86:77:a1:99:e3:13:35:dd:
                    a9:57
                Exponent: 65537 (0x10001)
        X509v3 extensions:
            X509v3 Subject Key Identifier: 
                2B:FD:5C:7D:6D:02:D7:89:FA:C7:2B:36:53:67:D4:8F:10:12:8B:3E
            X509v3 Authority Key Identifier: 
                keyid:2B:FD:5C:7D:6D:02:D7:89:FA:C7:2B:36:53:67:D4:8F:10:12:8B:3E

            X509v3 Basic Constraints: 
                CA:TRUE
    Signature Algorithm: sha256WithRSAEncryption
         9e:bc:0c:05:49:86:36:8e:02:72:87:7d:d8:90:9f:1a:98:56:
         bd:80:3d:0e:08:db:2c:fb:ba:d5:0d:44:05:ec:9e:f8:f1:d8:
         f9:46:1b:c4:5c:5a:ee:2f:55:7b:e5:8b:9b:2f:4a:9c:e5:15:
         d1:df:70:9b:63:e6:96:a3:21:90:44:52:b8:9e:df:82:a3:7c:
         3f:de:87:24:e4:83:29:fe:b0:be:5d:36:1e:af:f2:a7:18:3b:
         30:19:68:dc:3d:0c:22:b0:f9:9f:d0:5f:ec:da:a9:7a:46:36:
         36:51:94:08:22:60:ff:dd:ab:7f:88:61:d7:46:18:54:b6:94:
         25:fe:ce:55:cd:48:d3:0a:3e:8c:f0:04:cc:d2:1b:ca:95:86:
         1d:73:ab:a1:8e:b1:26:02:73:55:28:b0:90:e2:2b:a9:c7:2c:
         f4:04:f8:3e:58:d9:89:b2:d2:67:b1:d4:e2:d3:2e:59:2a:e0:
         45:1e:b1:5d:05:28:88:d8:da:ca:fc:72:8f:b7:66:67:74:b6:
         89:d6:bf:74:80:0f:21:56:9a:ba:f0:86:b5:70:cf:94:a6:98:
         c8:0d:4d:74:47:6d:a3:a3:25:4a:c0:89:30:8f:aa:3f:e9:a6:
         ea:ef:67:f7:cd:d7:ed:1e:b6:ff:c3:e2:52:fb:75:d0:c0:d0:
         ee:e6:3d:2c
-----BEGIN CERTIFICATE-----
MIIDsTCCApmgAwIBAgIJAL9LmKyHBmxbMA0GCSqGSIb3DQEBCwUAMG8xCzAJBgNV
BAYTAlVTMQswCQYDVQQIDAJPSDEPMA0GA1UECgwGQXBhY2hlMQ0wCwYDVQQLDARL
bm94MQ0wCwYDVQQDDARsZGFwMSQwIgYJKoZIhvcNAQkBFhVzbW9yZUBob3J0b253
b3Jrcy5jb20wHhcNMTYxMTE2MDEzOTU3WhcNMTkxMTE2MDEzOTU3WjBvMQswCQYD
VQQGEwJVUzELMAkGA1UECAwCT0gxDzANBgNVBAoMBkFwYWNoZTENMAsGA1UECwwE
S25veDENMAsGA1UEAwwEbGRhcDEkMCIGCSqGSIb3DQEJARYVc21vcmVAaG9ydG9u
d29ya3MuY29tMIIBIjANBgkqhkiG9w0BAQEFAAOCAQ8AMIIBCgKCAQEAwgOpEPFC
DWSXWOyEMH90jzJBtfNSm5ys3Pl+RoOiAi2KprOsDUmsjoULxORoUrOYEWHx6lH3
Bu+bnqqZk4UDPvLRS4n2/+XsXsGpWG6tEtk2U9ycjblaLLFhwp/1BLB/DRUzVo4G
Ftisr+N0GRPOFObPKG1twg4ezQzVau1YFmJgW9Kk1Oz/wXSdaXN463r9Kg9PcbMT
YOwzsPXh6vb5kx566qcWgxP2Y8h2TEqWlK6IpjqwcJZi7iY5prnFV+a5fkqZ0mNx
yKLIeRUtfxCHk0dtZ8EHXGFH6M7bg8bH+t57sYBqaaqSpy4/tRgWaPkaLleBmUd3
hnehmeMTNd2pVwIDAQABo1AwTjAdBgNVHQ4EFgQUK/1cfW0C14n6xys2U2fUjxAS
iz4wHwYDVR0jBBgwFoAUK/1cfW0C14n6xys2U2fUjxASiz4wDAYDVR0TBAUwAwEB
/zANBgkqhkiG9w0BAQsFAAOCAQEAnrwMBUmGNo4Ccod92JCfGphWvYA9DgjbLPu6
1Q1EBeye+PHY+UYbxFxa7i9Ve+WLmy9KnOUV0d9wm2PmlqMhkERSuJ7fgqN8P96H
JOSDKf6wvl02Hq/ypxg7MBlo3D0MIrD5n9Bf7NqpekY2NlGUCCJg/92rf4hh10YY
VLaUJf7OVc1I0wo+jPAEzNIbypWGHXOroY6xJgJzVSiwkOIrqccs9AT4PljZibLS
Z7HU4tMuWSrgRR6xXQUoiNjayvxyj7dmZ3S2ida/dIAPIVaauvCGtXDPlKaYyA1N
dEdto6MlSsCJMI+qP+mm6u9n983X7R62/8PiUvt10MDQ7uY9LA==
-----END CERTIFICATE-----
