Certificate:
    Data:
        Version: 3 (0x2)
        Serial Number:
            bf:4b:98:ac:87:06:6c:5d
    Signature Algorithm: sha256WithRSAEncryption
        Issuer: C=US, ST=OH, O=Apache, OU=Knox, CN=ldap/emailAddress=smore@hortonworks.com
        Validity
            Not Before: Nov 16 01:50:59 2016 GMT
            Not After : Nov 16 01:50:59 2017 GMT
        Subject: C=US, ST=OH, L=Hudson, O=Apache, OU=Knox, CN=sssd/emailAddress=smore@hortonworks.com
        Subject Public Key Info:
            Public Key Algorithm: rsaEncryption
                Public-Key: (1024 bit)
                Modulus:
                    00:e1:b2:02:b1:f2:95:1a:4d:19:bc:db:91:05:6e:
                    8b:21:12:48:cf:fd:8f:c9:c2:58:f4:ff:a5:4b:97:
                    7f:7a:c7:95:8b:ae:05:ce:ae:80:dd:6f:f0:57:68:
                    5c:02:87:7a:98:98:10:66:f5:00:48:00:01:81:b1:
                    a2:c2:3d:54:46:c8:66:96:30:25:4c:7e:24:ec:20:
                    b0:16:11:28:13:39:80:38:e6:61:99:eb:76:c8:04:
                    bd:09:9c:00:05:87:2e:de:e5:73:ff:ac:2d:a1:c9:
                    36:c6:f9:62:c8:4a:11:27:c2:6e:71:2a:98:a4:2c:
                    2e:d4:7c:5a:3f:81:53:8e:3b
                Exponent: 65537 (0x10001)
        X509v3 extensions:
            X509v3 Basic Constraints: 
                CA:FALSE
            Netscape Comment: 
                OpenSSL Generated Certificate
            X509v3 Subject Key Identifier: 
                65:3A:29:08:46:ED:21:BE:66:8C:27:CF:06:7C:7F:3F:F5:C4:59:69
            X509v3 Authority Key Identifier: 
                keyid:2B:FD:5C:7D:6D:02:D7:89:FA:C7:2B:36:53:67:D4:8F:10:12:8B:3E

    Signature Algorithm: sha256WithRSAEncryption
         78:be:7e:14:7a:37:9c:71:e3:4e:d0:17:75:52:89:72:1e:3a:
         6b:95:0f:5f:21:df:24:f4:7e:da:4a:82:af:72:fa:42:c0:15:
         cc:e0:9d:09:70:5e:17:4d:e2:de:ec:74:a2:c7:24:e4:c8:c7:
         aa:fb:4d:00:7b:30:d3:88:a1:dd:7c:ee:98:87:d3:99:72:fb:
         b3:49:fb:61:a0:66:dc:82:f3:9f:ca:b8:0b:73:dd:ff:48:42:
         70:e1:eb:31:7a:8f:28:a3:1d:fa:cd:b5:1c:6c:77:44:4a:bf:
         0d:02:21:9a:58:06:bd:35:45:9f:f0:97:c1:e4:e0:1d:dc:76:
         3e:b0:b2:1b:05:8a:9b:98:3a:e1:45:f1:ec:ee:48:10:2b:63:
         dd:e8:74:70:00:e3:8c:8d:93:a0:01:eb:bf:a3:6c:e2:8f:7b:
         80:98:d7:6a:06:a1:c1:56:1c:12:07:53:63:ff:d4:91:e6:68:
         70:a0:7c:2e:0d:b3:02:30:e7:fa:f3:c2:df:22:01:93:28:04:
         2f:d3:0c:58:d3:0c:40:1b:92:e0:26:6e:e8:3a:95:d0:31:5d:
         eb:9c:ec:0d:de:7d:d8:82:51:da:47:61:f1:5b:da:c1:cb:72:
         7d:b1:64:7b:8a:18:83:bf:21:a9:e5:3c:47:d2:eb:a9:7f:89:
         90:62:12:0c
-----BEGIN CERTIFICATE-----
MIIDajCCAlKgAwIBAgIJAL9LmKyHBmxdMA0GCSqGSIb3DQEBCwUAMG8xCzAJBgNV
BAYTAlVTMQswCQYDVQQIDAJPSDEPMA0GA1UECgwGQXBhY2hlMQ0wCwYDVQQLDARL
bm94MQ0wCwYDVQQDDARsZGFwMSQwIgYJKoZIhvcNAQkBFhVzbW9yZUBob3J0b253
b3Jrcy5jb20wHhcNMTYxMTE2MDE1MDU5WhcNMTcxMTE2MDE1MDU5WjCBgDELMAkG
A1UEBhMCVVMxCzAJBgNVBAgMAk9IMQ8wDQYDVQQHDAZIdWRzb24xDzANBgNVBAoM
BkFwYWNoZTENMAsGA1UECwwES25veDENMAsGA1UEAwwEc3NzZDEkMCIGCSqGSIb3
DQEJARYVc21vcmVAaG9ydG9ud29ya3MuY29tMIGfMA0GCSqGSIb3DQEBAQUAA4GN
ADCBiQKBgQDhsgKx8pUaTRm825EFboshEkjP/Y/Jwlj0/6VLl396x5WLrgXOroDd
b/BXaFwCh3qYmBBm9QBIAAGBsaLCPVRGyGaWMCVMfiTsILAWESgTOYA45mGZ63bI
BL0JnAAFhy7e5XP/rC2hyTbG+WLIShEnwm5xKpikLC7UfFo/gVOOOwIDAQABo3sw
eTAJBgNVHRMEAjAAMCwGCWCGSAGG+EIBDQQfFh1PcGVuU1NMIEdlbmVyYXRlZCBD
ZXJ0aWZpY2F0ZTAdBgNVHQ4EFgQUZTopCEbtIb5mjCfPBnx/P/XEWWkwHwYDVR0j
BBgwFoAUK/1cfW0C14n6xys2U2fUjxASiz4wDQYJKoZIhvcNAQELBQADggEBAHi+
fhR6N5xx407QF3VSiXIeOmuVD18h3yT0ftpKgq9y+kLAFczgnQlwXhdN4t7sdKLH
JOTIx6r7TQB7MNOIod187piH05ly+7NJ+2GgZtyC85/KuAtz3f9IQnDh6zF6jyij
HfrNtRxsd0RKvw0CIZpYBr01RZ/wl8Hk4B3cdj6wshsFipuYOuFF8ezuSBArY93o
dHAA44yNk6AB67+jbOKPe4CY12oGocFWHBIHU2P/1JHmaHCgfC4NswIw5/rzwt8i
AZMoBC/TDFjTDEAbkuAmbug6ldAxXeuc7A3efdiCUdpHYfFb2sHLcn2xZHuKGIO/
IanlPEfS66l/iZBiEgw=
-----END CERTIFICATE-----
