Certificate:
    Data:
        Version: 3 (0x2)
        Serial Number:
            bf:4b:98:ac:87:06:6c:5c
    Signature Algorithm: sha256WithRSAEncryption
        Issuer: C=US, ST=OH, O=Apache, OU=Knox, CN=ldap/emailAddress=smore@hortonworks.com
        Validity
            Not Before: Nov 16 01:42:47 2016 GMT
            Not After : Nov 16 01:42:47 2017 GMT
        Subject: C=US, ST=OH, L=Hudson, O=Apache, OU=Knox, CN=ldap/emailAddress=smore@hortonworks.com
        Subject Public Key Info:
            Public Key Algorithm: rsaEncryption
                Public-Key: (1024 bit)
                Modulus:
                    00:b6:61:6d:35:c8:65:dc:e4:e1:c9:54:6e:d5:82:
                    1b:26:78:2d:4b:6b:a5:54:d0:29:26:a1:32:d1:4f:
                    ee:11:d7:e5:8b:47:5a:76:74:fa:82:21:0a:87:1e:
                    df:b5:9a:e9:00:40:f5:37:8e:27:85:71:41:51:76:
                    fd:58:a1:c8:07:3f:3d:72:9f:fb:95:d7:71:26:95:
                    74:bb:ab:32:4d:cf:dd:da:d0:ba:d1:63:5f:04:ca:
                    a6:87:a1:d3:6f:ea:3f:00:81:88:54:33:81:0e:98:
                    45:53:ff:61:81:b4:48:a0:e0:0d:7f:85:f1:bc:0b:
                    b9:bf:ea:1d:57:43:3c:33:9d
                Exponent: 65537 (0x10001)
        X509v3 extensions:
            X509v3 Basic Constraints: 
                CA:FALSE
            Netscape Comment: 
                OpenSSL Generated Certificate
            X509v3 Subject Key Identifier: 
                08:43:46:CE:8C:E9:A3:DD:C5:B1:4C:19:DA:07:0A:9C:29:03:76:A5
            X509v3 Authority Key Identifier: 
                keyid:2B:FD:5C:7D:6D:02:D7:89:FA:C7:2B:36:53:67:D4:8F:10:12:8B:3E

    Signature Algorithm: sha256WithRSAEncryption
         85:67:6b:2f:3d:35:48:21:36:c6:1e:57:6e:f9:a0:28:f8:9f:
         c9:04:f6:1e:e2:f0:41:6a:90:71:ed:ff:ab:62:7d:10:4d:f1:
         ad:8b:49:ac:74:07:6d:f0:d1:95:08:70:ac:32:fe:20:21:fb:
         3c:21:36:65:81:b8:46:bf:16:4f:cc:29:fc:53:0c:2d:62:b2:
         17:a5:e7:d8:2e:71:ee:79:1d:1e:7d:3c:52:ba:e6:40:f6:d8:
         44:ee:8f:ef:5e:8f:04:60:74:d7:b6:28:56:1d:a1:a0:c9:4d:
         5a:6a:2d:2d:8b:31:7d:cc:9f:20:cf:52:0c:09:35:ae:c7:19:
         77:b7:06:a2:b2:09:1e:14:52:6d:bf:b2:50:8a:b2:45:1b:c2:
         f0:3b:9a:02:56:8a:ce:49:68:8e:ea:6b:63:d7:59:8f:09:9f:
         b2:d3:c0:9a:ae:38:6a:17:a6:b6:f8:83:9f:e9:b9:be:61:da:
         70:d3:9e:a3:20:95:dd:4a:2f:ea:e6:64:c6:02:6f:eb:14:b5:
         7d:96:90:22:9c:86:9e:18:a2:0c:ec:53:c0:8f:e1:89:64:fc:
         1c:11:ff:70:81:66:e9:9d:4e:c4:e8:12:27:60:b8:42:02:48:
         7a:28:2d:bb:0a:4f:ae:f7:31:fb:01:2a:3f:6b:50:c2:0b:f7:
         f2:41:1b:36
-----BEGIN CERTIFICATE-----
MIIDajCCAlKgAwIBAgIJAL9LmKyHBmxcMA0GCSqGSIb3DQEBCwUAMG8xCzAJBgNV
BAYTAlVTMQswCQYDVQQIDAJPSDEPMA0GA1UECgwGQXBhY2hlMQ0wCwYDVQQLDARL
bm94MQ0wCwYDVQQDDARsZGFwMSQwIgYJKoZIhvcNAQkBFhVzbW9yZUBob3J0b253
b3Jrcy5jb20wHhcNMTYxMTE2MDE0MjQ3WhcNMTcxMTE2MDE0MjQ3WjCBgDELMAkG
A1UEBhMCVVMxCzAJBgNVBAgMAk9IMQ8wDQYDVQQHDAZIdWRzb24xDzANBgNVBAoM
BkFwYWNoZTENMAsGA1UECwwES25veDENMAsGA1UEAwwEbGRhcDEkMCIGCSqGSIb3
DQEJARYVc21vcmVAaG9ydG9ud29ya3MuY29tMIGfMA0GCSqGSIb3DQEBAQUAA4GN
ADCBiQKBgQC2YW01yGXc5OHJVG7VghsmeC1La6VU0CkmoTLRT+4R1+WLR1p2dPqC
IQqHHt+1mukAQPU3jieFcUFRdv1YocgHPz1yn/uV13EmlXS7qzJNz93a0LrRY18E
yqaHodNv6j8AgYhUM4EOmEVT/2GBtEig4A1/hfG8C7m/6h1XQzwznQIDAQABo3sw
eTAJBgNVHRMEAjAAMCwGCWCGSAGG+EIBDQQfFh1PcGVuU1NMIEdlbmVyYXRlZCBD
ZXJ0aWZpY2F0ZTAdBgNVHQ4EFgQUCENGzozpo93FsUwZ2gcKnCkDdqUwHwYDVR0j
BBgwFoAUK/1cfW0C14n6xys2U2fUjxASiz4wDQYJKoZIhvcNAQELBQADggEBAIVn
ay89NUghNsYeV275oCj4n8kE9h7i8EFqkHHt/6tifRBN8a2LSax0B23w0ZUIcKwy
/iAh+zwhNmWBuEa/Fk/MKfxTDC1ishel59guce55HR59PFK65kD22ETuj+9ejwRg
dNe2KFYdoaDJTVpqLS2LMX3MnyDPUgwJNa7HGXe3BqKyCR4UUm2/slCKskUbwvA7
mgJWis5JaI7qa2PXWY8Jn7LTwJquOGoXprb4g5/pub5h2nDTnqMgld1KL+rmZMYC
b+sUtX2WkCKchp4YogzsU8CP4Ylk/BwR/3CBZumdTsToEidguEICSHooLbsKT673
MfsBKj9rUMIL9/JBGzY=
-----END CERTIFICATE-----
